target datalayout = "e-m:e-p270:32:32-p271:32:32-p272:64:64-i64:64-i128:128-f80:128-n8:16:32:64-S128"
target triple = "x86_64-unknown-linux-gnu"

%"class.google::protobuf::util::MessageDifferencer::MapEntryKeyComparator" = type { %"class.google::protobuf::util::MessageDifferencer::MapKeyComparator", ptr }
%"class.google::protobuf::util::MessageDifferencer::MapKeyComparator" = type { ptr }
%"class.google::protobuf::util::MessageDifferencer" = type { ptr, %"class.google::protobuf::util::DefaultFieldComparator", i32, i32, %"class.absl::lts_20230802::flat_hash_set", %"class.google::protobuf::TextFormat::Parser::UnsetFieldsMetadata", %"class.absl::lts_20230802::flat_hash_set.31", i32, %"class.absl::lts_20230802::flat_hash_map.41", %"class.std::vector.50", %"class.absl::lts_20230802::flat_hash_map.55", %"class.google::protobuf::util::MessageDifferencer::MapEntryKeyComparator", %"class.std::vector.64", %"class.std::vector.69", %"class.absl::lts_20230802::flat_hash_set", %union.anon.71, i32, i8, i8, i8, i8, ptr, %"class.std::function", %"class.google::protobuf::util::MessageDifferencer::UnpackAnyField" }
%"class.google::protobuf::util::DefaultFieldComparator" = type { %"class.google::protobuf::util::SimpleFieldComparator" }
%"class.google::protobuf::util::SimpleFieldComparator" = type { %"class.google::protobuf::util::FieldComparator", i32, i8, i8, %"struct.google::protobuf::util::SimpleFieldComparator::Tolerance", %"class.absl::lts_20230802::flat_hash_map" }
%"class.google::protobuf::util::FieldComparator" = type { ptr }
%"struct.google::protobuf::util::SimpleFieldComparator::Tolerance" = type { double, double }
%"class.absl::lts_20230802::flat_hash_map" = type { %"class.absl::lts_20230802::container_internal::raw_hash_map" }
%"class.absl::lts_20230802::container_internal::raw_hash_map" = type { %"class.absl::lts_20230802::container_internal::raw_hash_set" }
%"class.absl::lts_20230802::container_internal::raw_hash_set" = type { %"class.absl::lts_20230802::container_internal::CompressedTuple" }
%"class.absl::lts_20230802::container_internal::CompressedTuple" = type { %"struct.absl::lts_20230802::container_internal::internal_compressed_tuple::CompressedTupleImpl" }
%"struct.absl::lts_20230802::container_internal::internal_compressed_tuple::CompressedTupleImpl" = type { %"struct.absl::lts_20230802::container_internal::internal_compressed_tuple::Storage" }
%"struct.absl::lts_20230802::container_internal::internal_compressed_tuple::Storage" = type { %"class.absl::lts_20230802::container_internal::CommonFields" }
%"class.absl::lts_20230802::container_internal::CommonFields" = type { ptr, ptr, i64, %"class.absl::lts_20230802::container_internal::CompressedTuple.4" }
%"class.absl::lts_20230802::container_internal::CompressedTuple.4" = type { %"struct.absl::lts_20230802::container_internal::internal_compressed_tuple::CompressedTupleImpl.5" }
%"struct.absl::lts_20230802::container_internal::internal_compressed_tuple::CompressedTupleImpl.5" = type { %"struct.absl::lts_20230802::container_internal::internal_compressed_tuple::Storage.6" }
%"struct.absl::lts_20230802::container_internal::internal_compressed_tuple::Storage.6" = type { i64 }
%"class.google::protobuf::TextFormat::Parser::UnsetFieldsMetadata" = type { %"class.absl::lts_20230802::flat_hash_set.21" }
%"class.absl::lts_20230802::flat_hash_set.21" = type { %"class.absl::lts_20230802::container_internal::raw_hash_set.22" }
%"class.absl::lts_20230802::container_internal::raw_hash_set.22" = type { %"class.absl::lts_20230802::container_internal::CompressedTuple.23" }
%"class.absl::lts_20230802::container_internal::CompressedTuple.23" = type { %"struct.absl::lts_20230802::container_internal::internal_compressed_tuple::CompressedTupleImpl.24" }
%"struct.absl::lts_20230802::container_internal::internal_compressed_tuple::CompressedTupleImpl.24" = type { %"struct.absl::lts_20230802::container_internal::internal_compressed_tuple::Storage" }
%"class.absl::lts_20230802::flat_hash_set.31" = type { %"class.absl::lts_20230802::container_internal::raw_hash_set.32" }
%"class.absl::lts_20230802::container_internal::raw_hash_set.32" = type { %"class.absl::lts_20230802::container_internal::CompressedTuple.33" }
%"class.absl::lts_20230802::container_internal::CompressedTuple.33" = type { %"struct.absl::lts_20230802::container_internal::internal_compressed_tuple::CompressedTupleImpl.34" }
%"struct.absl::lts_20230802::container_internal::internal_compressed_tuple::CompressedTupleImpl.34" = type { %"struct.absl::lts_20230802::container_internal::internal_compressed_tuple::Storage" }
%"class.absl::lts_20230802::flat_hash_map.41" = type { %"class.absl::lts_20230802::container_internal::raw_hash_map.42" }
%"class.absl::lts_20230802::container_internal::raw_hash_map.42" = type { %"class.absl::lts_20230802::container_internal::raw_hash_set.43" }
%"class.absl::lts_20230802::container_internal::raw_hash_set.43" = type { %"class.absl::lts_20230802::container_internal::CompressedTuple.44" }
%"class.absl::lts_20230802::container_internal::CompressedTuple.44" = type { %"struct.absl::lts_20230802::container_internal::internal_compressed_tuple::CompressedTupleImpl.45" }
%"struct.absl::lts_20230802::container_internal::internal_compressed_tuple::CompressedTupleImpl.45" = type { %"struct.absl::lts_20230802::container_internal::internal_compressed_tuple::Storage" }
%"class.std::vector.50" = type { %"struct.std::_Vector_base.51" }
%"struct.std::_Vector_base.51" = type { %"struct.std::_Vector_base<google::protobuf::util::MessageDifferencer::MapKeyComparator *, std::allocator<google::protobuf::util::MessageDifferencer::MapKeyComparator *>>::_Vector_impl" }
%"struct.std::_Vector_base<google::protobuf::util::MessageDifferencer::MapKeyComparator *, std::allocator<google::protobuf::util::MessageDifferencer::MapKeyComparator *>>::_Vector_impl" = type { %"struct.std::_Vector_base<google::protobuf::util::MessageDifferencer::MapKeyComparator *, std::allocator<google::protobuf::util::MessageDifferencer::MapKeyComparator *>>::_Vector_impl_data" }
%"struct.std::_Vector_base<google::protobuf::util::MessageDifferencer::MapKeyComparator *, std::allocator<google::protobuf::util::MessageDifferencer::MapKeyComparator *>>::_Vector_impl_data" = type { ptr, ptr, ptr }
%"class.absl::lts_20230802::flat_hash_map.55" = type { %"class.absl::lts_20230802::container_internal::raw_hash_map.56" }
%"class.absl::lts_20230802::container_internal::raw_hash_map.56" = type { %"class.absl::lts_20230802::container_internal::raw_hash_set.57" }
%"class.absl::lts_20230802::container_internal::raw_hash_set.57" = type { %"class.absl::lts_20230802::container_internal::CompressedTuple.58" }
%"class.absl::lts_20230802::container_internal::CompressedTuple.58" = type { %"struct.absl::lts_20230802::container_internal::internal_compressed_tuple::CompressedTupleImpl.59" }
%"struct.absl::lts_20230802::container_internal::internal_compressed_tuple::CompressedTupleImpl.59" = type { %"struct.absl::lts_20230802::container_internal::internal_compressed_tuple::Storage" }
%"class.std::vector.64" = type { %"struct.std::_Vector_base.65" }
%"struct.std::_Vector_base.65" = type { %"struct.std::_Vector_base<std::unique_ptr<google::protobuf::util::MessageDifferencer::IgnoreCriteria>, std::allocator<std::unique_ptr<google::protobuf::util::MessageDifferencer::IgnoreCriteria>>>::_Vector_impl" }
%"struct.std::_Vector_base<std::unique_ptr<google::protobuf::util::MessageDifferencer::IgnoreCriteria>, std::allocator<std::unique_ptr<google::protobuf::util::MessageDifferencer::IgnoreCriteria>>>::_Vector_impl" = type { %"struct.std::_Vector_base<std::unique_ptr<google::protobuf::util::MessageDifferencer::IgnoreCriteria>, std::allocator<std::unique_ptr<google::protobuf::util::MessageDifferencer::IgnoreCriteria>>>::_Vector_impl_data" }
%"struct.std::_Vector_base<std::unique_ptr<google::protobuf::util::MessageDifferencer::IgnoreCriteria>, std::allocator<std::unique_ptr<google::protobuf::util::MessageDifferencer::IgnoreCriteria>>>::_Vector_impl_data" = type { ptr, ptr, ptr }
%"class.std::vector.69" = type { %"struct.std::_Vector_base.70" }
%"struct.std::_Vector_base.70" = type { %"struct.std::_Vector_base<const google::protobuf::FieldDescriptor *, std::allocator<const google::protobuf::FieldDescriptor *>>::_Vector_impl" }
%"struct.std::_Vector_base<const google::protobuf::FieldDescriptor *, std::allocator<const google::protobuf::FieldDescriptor *>>::_Vector_impl" = type { %"struct.std::_Vector_base<const google::protobuf::FieldDescriptor *, std::allocator<const google::protobuf::FieldDescriptor *>>::_Vector_impl_data" }
%"struct.std::_Vector_base<const google::protobuf::FieldDescriptor *, std::allocator<const google::protobuf::FieldDescriptor *>>::_Vector_impl_data" = type { ptr, ptr, ptr }
%"class.absl::lts_20230802::flat_hash_set" = type { %"class.absl::lts_20230802::container_internal::raw_hash_set.14" }
%"class.absl::lts_20230802::container_internal::raw_hash_set.14" = type { %"class.absl::lts_20230802::container_internal::CompressedTuple.15" }
%"class.absl::lts_20230802::container_internal::CompressedTuple.15" = type { %"struct.absl::lts_20230802::container_internal::internal_compressed_tuple::CompressedTupleImpl.16" }
%"struct.absl::lts_20230802::container_internal::internal_compressed_tuple::CompressedTupleImpl.16" = type { %"struct.absl::lts_20230802::container_internal::internal_compressed_tuple::Storage" }
%union.anon.71 = type { ptr }
%"class.std::function" = type { %"class.std::_Function_base", ptr }
%"class.std::_Function_base" = type { %"union.std::_Any_data", ptr }
%"union.std::_Any_data" = type { %"union.std::_Nocopy_types" }
%"union.std::_Nocopy_types" = type { { i64, i64 } }
%"class.google::protobuf::util::MessageDifferencer::UnpackAnyField" = type { %"class.std::unique_ptr" }
%"class.std::unique_ptr" = type { %"struct.std::__uniq_ptr_data" }
%"struct.std::__uniq_ptr_data" = type { %"class.std::__uniq_ptr_impl" }
%"class.std::__uniq_ptr_impl" = type { %"class.std::tuple" }
%"class.std::tuple" = type { %"struct.std::_Tuple_impl" }
%"struct.std::_Tuple_impl" = type { %"struct.std::_Head_base.73" }
%"struct.std::_Head_base.73" = type { ptr }
%"class.absl::lts_20230802::log_internal::Voidify" = type { i8 }
%"class.absl::lts_20230802::log_internal::LogMessageFatal" = type { %"class.absl::lts_20230802::log_internal::LogMessage" }
%"class.absl::lts_20230802::log_internal::LogMessage" = type { %"class.absl::lts_20230802::base_internal::ErrnoSaver", %"class.std::unique_ptr.79" }
%"class.absl::lts_20230802::base_internal::ErrnoSaver" = type { i32 }
%"class.std::unique_ptr.79" = type { %"struct.std::__uniq_ptr_data.80" }
%"struct.std::__uniq_ptr_data.80" = type { %"class.std::__uniq_ptr_impl.81" }
%"class.std::__uniq_ptr_impl.81" = type { %"class.std::tuple.82" }
%"class.std::tuple.82" = type { %"struct.std::_Tuple_impl.83" }
%"struct.std::_Tuple_impl.83" = type { %"struct.std::_Head_base.86" }
%"struct.std::_Head_base.86" = type { ptr }
%"class.std::basic_string_view" = type { i64, ptr }

@.str = private unnamed_addr constant [143 x i8] c"generated/home/dtcxzyw/WorkSpace/Projects/compilers/llvm-opt-benchmark/bench/protobuf/protobuf/src/google/protobuf/util/message_differencer.cc\00", align 1
@.str.1 = private unnamed_addr constant [11 x i8] c"comparator\00", align 1
@.str.2 = private unnamed_addr constant [32 x i8] c"Field comparator can't be NULL.\00", align 1

; Function Attrs: noreturn nounwind uwtable
define linkonce_odr hidden void @__clang_call_terminate(ptr noundef %0) #14 comdat {
  %2 = call ptr @__cxa_begin_catch(ptr %0) #3
  call void @_ZSt9terminatev() #23
  unreachable
}

; Function Attrs: mustprogress nounwind uwtable
define linkonce_odr hidden noundef i64 @_ZNSt11char_traitsIcE6lengthEPKc(ptr noundef %__s) #5 comdat align 2 {
entry:
  %__s.addr = alloca ptr, align 8
  store ptr %__s, ptr %__s.addr, align 8
  %0 = load ptr, ptr %__s.addr, align 8
  %call = call i64 @strlen(ptr noundef %0) #3
  ret i64 %call
}

; Function Attrs: mustprogress nounwind uwtable
define linkonce_odr hidden void @_ZNKO4absl12lts_2023080212log_internal7VoidifyaaINS1_10LogMessageEEEvRKT_(ptr noundef nonnull align 1 dereferenceable(1) %this, ptr noundef nonnull align 8 dereferenceable(16) %0) #5 comdat align 2 {
entry:
  %this.addr = alloca ptr, align 8
  %.addr = alloca ptr, align 8
  store ptr %this, ptr %this.addr, align 8
  store ptr %0, ptr %.addr, align 8
  ret void
}

; Function Attrs: mustprogress uwtable
define linkonce_odr hidden noundef nonnull align 8 dereferenceable(16) ptr @_ZN4absl12lts_2023080212log_internal10LogMessagelsILi32EEERS2_RAT__Kc(ptr noundef nonnull align 8 dereferenceable(16) %this, ptr noundef nonnull align 1 dereferenceable(32) %buf) #4 comdat align 2 {
entry:
  %this.addr = alloca ptr, align 8
  %buf.addr = alloca ptr, align 8
  %agg.tmp = alloca %"class.std::basic_string_view", align 8
  store ptr %this, ptr %this.addr, align 8
  store ptr %buf, ptr %buf.addr, align 8
  %this1 = load ptr, ptr %this.addr, align 8
  %0 = load ptr, ptr %buf.addr, align 8
  %arraydecay = getelementptr inbounds [32 x i8], ptr %0, i64 0, i64 0
  call void @_ZNSt17basic_string_viewIcSt11char_traitsIcEEC2EPKc(ptr noundef nonnull align 8 dereferenceable(16) %agg.tmp, ptr noundef %arraydecay) #3
  %1 = getelementptr inbounds { i64, ptr }, ptr %agg.tmp, i32 0, i32 0
  %2 = load i64, ptr %1, align 8
  %3 = getelementptr inbounds { i64, ptr }, ptr %agg.tmp, i32 0, i32 1
  %4 = load ptr, ptr %3, align 8
  call void @_ZN4absl12lts_2023080212log_internal10LogMessage19CopyToEncodedBufferILNS2_10StringTypeE0EEEvSt17basic_string_viewIcSt11char_traitsIcEE(ptr noundef nonnull align 8 dereferenceable(16) %this1, i64 %2, ptr %4)
  ret ptr %this1
}

; Function Attrs: mustprogress nounwind uwtable
define linkonce_odr hidden noundef nonnull align 8 dereferenceable(16) ptr @_ZN4absl12lts_2023080212log_internal10LogMessage14InternalStreamEv(ptr noundef nonnull align 8 dereferenceable(16) %this) #5 comdat align 2 {
entry:
  %this.addr = alloca ptr, align 8
  store ptr %this, ptr %this.addr, align 8
  %this1 = load ptr, ptr %this.addr, align 8
  ret ptr %this1
}

; Function Attrs: mustprogress nounwind uwtable
define linkonce_odr hidden void @_ZNSt17basic_string_viewIcSt11char_traitsIcEEC2EPKc(ptr noundef nonnull align 8 dereferenceable(16) %this, ptr noundef nonnull %__str) unnamed_addr #5 comdat align 2 personality ptr @__gxx_personality_v0 {
entry:
  %this.addr = alloca ptr, align 8
  %__str.addr = alloca ptr, align 8
  store ptr %this, ptr %this.addr, align 8
  store ptr %__str, ptr %__str.addr, align 8
  %this1 = load ptr, ptr %this.addr, align 8
  %_M_len = getelementptr inbounds %"class.std::basic_string_view", ptr %this1, i32 0, i32 0
  %0 = load ptr, ptr %__str.addr, align 8
  %call = invoke noundef i64 @_ZNSt11char_traitsIcE6lengthEPKc(ptr noundef %0)
          to label %invoke.cont unwind label %terminate.lpad

invoke.cont:                                      ; preds = %entry
  store i64 %call, ptr %_M_len, align 8
  %_M_str = getelementptr inbounds %"class.std::basic_string_view", ptr %this1, i32 0, i32 1
  %1 = load ptr, ptr %__str.addr, align 8
  store ptr %1, ptr %_M_str, align 8
  ret void

terminate.lpad:                                   ; preds = %entry
  %2 = landingpad { ptr, i32 }
          catch ptr null
  %3 = extractvalue { ptr, i32 } %2, 0
  call void @__clang_call_terminate(ptr %3) #23
  unreachable
}

; Function Attrs: mustprogress uwtable
define void @_ZN6google8protobuf4util18MessageDifferencer20set_field_comparatorEPNS1_15FieldComparatorE(ptr noundef nonnull align 8 dereferenceable(432) %this, ptr noundef %comparator) #4 align 2 personality ptr @__gxx_personality_v0 {
entry:
  %this.addr = alloca ptr, align 8
  %comparator.addr = alloca ptr, align 8
  %ref.tmp = alloca %"class.absl::lts_20230802::log_internal::Voidify", align 1
  %ref.tmp2 = alloca %"class.absl::lts_20230802::log_internal::LogMessageFatal", align 8
  %agg.tmp = alloca %"class.std::basic_string_view", align 8
  %cleanup.cond = alloca i1, align 1
  %exn.slot = alloca ptr, align 8
  %ehselector.slot = alloca i32, align 4
  store ptr %this, ptr %this.addr, align 8
  store ptr %comparator, ptr %comparator.addr, align 8
  %this1 = load ptr, ptr %this.addr, align 8
  %0 = load ptr, ptr %comparator.addr, align 8
  %tobool = icmp ne ptr %0, null
  %lnot = xor i1 %tobool, true
  store i1 false, ptr %cleanup.cond, align 1
  br i1 %lnot, label %cond.false, label %cond.true

cond.true:                                        ; preds = %entry
  br label %cond.end

cond.false:                                       ; preds = %entry
  call void @_ZNSt17basic_string_viewIcSt11char_traitsIcEEC2EPKc(ptr noundef nonnull align 8 dereferenceable(16) %agg.tmp, ptr noundef @.str.1) #3
  %1 = getelementptr inbounds { i64, ptr }, ptr %agg.tmp, i32 0, i32 0
  %2 = load i64, ptr %1, align 8
  %3 = getelementptr inbounds { i64, ptr }, ptr %agg.tmp, i32 0, i32 1
  %4 = load ptr, ptr %3, align 8
  call void @_ZN4absl12lts_2023080212log_internal15LogMessageFatalC1EPKciSt17basic_string_viewIcSt11char_traitsIcEE(ptr noundef nonnull align 8 dereferenceable(16) %ref.tmp2, ptr noundef @.str, i32 noundef 322, i64 %2, ptr %4) #24
  store i1 true, ptr %cleanup.cond, align 1
  %call = invoke noundef nonnull align 8 dereferenceable(16) ptr @_ZN4absl12lts_2023080212log_internal10LogMessage14InternalStreamEv(ptr noundef nonnull align 8 dereferenceable(16) %ref.tmp2)
          to label %invoke.cont unwind label %lpad

invoke.cont:                                      ; preds = %cond.false
  %call4 = invoke noundef nonnull align 8 dereferenceable(16) ptr @_ZN4absl12lts_2023080212log_internal10LogMessagelsILi32EEERS2_RAT__Kc(ptr noundef nonnull align 8 dereferenceable(16) %call, ptr noundef nonnull align 1 dereferenceable(32) @.str.2)
          to label %invoke.cont3 unwind label %lpad

invoke.cont3:                                     ; preds = %invoke.cont
  invoke void @_ZNKO4absl12lts_2023080212log_internal7VoidifyaaINS1_10LogMessageEEEvRKT_(ptr noundef nonnull align 1 dereferenceable(1) %ref.tmp, ptr noundef nonnull align 8 dereferenceable(16) %call4)
          to label %invoke.cont5 unwind label %lpad

invoke.cont5:                                     ; preds = %invoke.cont3
  br label %cond.end

cond.end:                                         ; preds = %invoke.cont5, %cond.true
  %cleanup.is_active = load i1, ptr %cleanup.cond, align 1
  br i1 %cleanup.is_active, label %cleanup.action, label %cleanup.done

cleanup.action:                                   ; preds = %cond.end
  call void @_ZN4absl12lts_2023080212log_internal15LogMessageFatalD1Ev(ptr noundef nonnull align 8 dereferenceable(16) %ref.tmp2) #23
  unreachable

lpad:                                             ; preds = %invoke.cont3, %invoke.cont, %cond.false
  %5 = landingpad { ptr, i32 }
          cleanup
  %6 = extractvalue { ptr, i32 } %5, 0
  store ptr %6, ptr %exn.slot, align 8
  %7 = extractvalue { ptr, i32 } %5, 1
  store i32 %7, ptr %ehselector.slot, align 4
  %cleanup.is_active6 = load i1, ptr %cleanup.cond, align 1
  br i1 %cleanup.is_active6, label %cleanup.action7, label %cleanup.done8

8:                                                ; No predecessors!
  br label %cleanup.done

cleanup.done:                                     ; preds = %8, %cond.end
  %field_comparator_kind_ = getelementptr inbounds %"class.google::protobuf::util::MessageDifferencer", ptr %this1, i32 0, i32 16
  store i32 1, ptr %field_comparator_kind_, align 8
  %9 = load ptr, ptr %comparator.addr, align 8
  %field_comparator_ = getelementptr inbounds %"class.google::protobuf::util::MessageDifferencer", ptr %this1, i32 0, i32 15
  store ptr %9, ptr %field_comparator_, align 8
  ret void

cleanup.action7:                                  ; preds = %lpad
  call void @_ZN4absl12lts_2023080212log_internal15LogMessageFatalD1Ev(ptr noundef nonnull align 8 dereferenceable(16) %ref.tmp2) #23
  unreachable

10:                                               ; No predecessors!
  br label %cleanup.done8

cleanup.done8:                                    ; preds = %10, %lpad
  br label %eh.resume

eh.resume:                                        ; preds = %cleanup.done8
  %exn = load ptr, ptr %exn.slot, align 8
  %sel = load i32, ptr %ehselector.slot, align 4
  %lpad.val = insertvalue { ptr, i32 } poison, ptr %exn, 0
  %lpad.val9 = insertvalue { ptr, i32 } %lpad.val, i32 %sel, 1
  resume { ptr, i32 } %lpad.val9
}