; Function Attrs: mustprogress uwtable
define void @_ZN6google8protobuf4util18MessageDifferencer20set_field_comparatorEPNS1_15FieldComparatorE(ptr nocapture noundef nonnull writeonly align 8 dereferenceable(432) %this, ptr noundef %comparator) local_unnamed_addr #3 align 2 personality ptr @__gxx_personality_v0 {
entry:
  %ref.tmp2 = alloca %"class.absl::lts_20230802::log_internal::LogMessageFatal", align 8
  %tobool.not = icmp eq ptr %comparator, null
  br i1 %tobool.not, label %cond.false, label %cleanup.done

cond.false:                                       ; preds = %entry
  call void @_ZN4absl12lts_2023080212log_internal15LogMessageFatalC1EPKciSt17basic_string_viewIcSt11char_traitsIcEE(ptr noundef nonnull align 8 dereferenceable(16) %ref.tmp2, ptr noundef nonnull @.str, i32 noundef 322, i64 10, ptr nonnull @.str.1) #36
  invoke void @_ZN4absl12lts_2023080212log_internal10LogMessage19CopyToEncodedBufferILNS2_10StringTypeE0EEEvSt17basic_string_viewIcSt11char_traitsIcEE(ptr noundef nonnull align 8 dereferenceable(16) %ref.tmp2, i64 31, ptr nonnull @.str.2)
          to label %cleanup.action unwind label %lpad

cleanup.action:                                   ; preds = %cond.false
  call void @_ZN4absl12lts_2023080212log_internal15LogMessageFatalD1Ev(ptr noundef nonnull align 8 dereferenceable(16) %ref.tmp2) #35
  unreachable

lpad:                                             ; preds = %cond.false
  %0 = landingpad { ptr, i32 }
          cleanup
  call void @_ZN4absl12lts_2023080212log_internal15LogMessageFatalD1Ev(ptr noundef nonnull align 8 dereferenceable(16) %ref.tmp2) #35
  unreachable

cleanup.done:                                     ; preds = %entry
  %field_comparator_kind_ = getelementptr inbounds i8, ptr %this, i64 376
  store i32 1, ptr %field_comparator_kind_, align 8
  %field_comparator_ = getelementptr inbounds i8, ptr %this, i64 368
  store ptr %comparator, ptr %field_comparator_, align 8
  ret void
}